target datalayout = "e-m:e-p270:32:32-p271:32:32-p272:64:64-i64:64-i128:128-f80:128-n8:16:32:64-S128"
target triple = "x86_64-pc-linux-gnu"

%struct.UCPTrie = type { ptr, %union.UCPTrieData, i32, i32, i32, i16, i8, i8, i32, i16, i16, i32, i32 }
%union.UCPTrieData = type { ptr }

; Function Attrs: mustprogress nounwind uwtable
define i32 @ucptrie_internalSmallIndex_77(ptr noundef %0, i32 noundef %1) #7 {
  %3 = alloca ptr, align 8
  %4 = alloca i32, align 4
  %5 = alloca i32, align 4
  %6 = alloca i32, align 4
  %7 = alloca i32, align 4
  %8 = alloca i32, align 4
  store ptr %0, ptr %3, align 8, !tbaa !38
  store i32 %1, ptr %4, align 4, !tbaa !11
  call void @llvm.lifetime.start.p0(i64 4, ptr %5) #9
  %9 = load i32, ptr %4, align 4, !tbaa !11
  %10 = ashr i32 %9, 14
  store i32 %10, ptr %5, align 4, !tbaa !11
  %11 = load ptr, ptr %3, align 8, !tbaa !38
  %12 = getelementptr inbounds nuw %struct.UCPTrie, ptr %11, i32 0, i32 6
  %13 = load i8, ptr %12, align 2, !tbaa !36
  %14 = sext i8 %13 to i32
  %15 = icmp eq i32 %14, 0
  br i1 %15, label %16, label %19

16:                                               ; preds = %2
  %17 = load i32, ptr %5, align 4, !tbaa !11
  %18 = add nsw i32 %17, 1020
  store i32 %18, ptr %5, align 4, !tbaa !11
  br label %22

19:                                               ; preds = %2
  %20 = load i32, ptr %5, align 4, !tbaa !11
  %21 = add nsw i32 %20, 64
  store i32 %21, ptr %5, align 4, !tbaa !11
  br label %22

22:                                               ; preds = %19, %16
  call void @llvm.lifetime.start.p0(i64 4, ptr %6) #9
  %23 = load ptr, ptr %3, align 8, !tbaa !38
  %24 = getelementptr inbounds nuw %struct.UCPTrie, ptr %23, i32 0, i32 0
  %25 = load ptr, ptr %24, align 8, !tbaa !41
  %26 = load ptr, ptr %3, align 8, !tbaa !38
  %27 = getelementptr inbounds nuw %struct.UCPTrie, ptr %26, i32 0, i32 0
  %28 = load ptr, ptr %27, align 8, !tbaa !41
  %29 = load i32, ptr %5, align 4, !tbaa !11
  %30 = sext i32 %29 to i64
  %31 = getelementptr inbounds i16, ptr %28, i64 %30
  %32 = load i16, ptr %31, align 2, !tbaa !43
  %33 = zext i16 %32 to i32
  %34 = load i32, ptr %4, align 4, !tbaa !11
  %35 = ashr i32 %34, 9
  %36 = and i32 %35, 31
  %37 = add nsw i32 %33, %36
  %38 = sext i32 %37 to i64
  %39 = getelementptr inbounds i16, ptr %25, i64 %38
  %40 = load i16, ptr %39, align 2, !tbaa !43
  %41 = zext i16 %40 to i32
  store i32 %41, ptr %6, align 4, !tbaa !11
  call void @llvm.lifetime.start.p0(i64 4, ptr %7) #9
  %42 = load i32, ptr %4, align 4, !tbaa !11
  %43 = ashr i32 %42, 4
  %44 = and i32 %43, 31
  store i32 %44, ptr %7, align 4, !tbaa !11
  call void @llvm.lifetime.start.p0(i64 4, ptr %8) #9
  %45 = load i32, ptr %6, align 4, !tbaa !11
  %46 = and i32 %45, 32768
  %47 = icmp eq i32 %46, 0
  br i1 %47, label %48, label %59

48:                                               ; preds = %22
  %49 = load ptr, ptr %3, align 8, !tbaa !38
  %50 = getelementptr inbounds nuw %struct.UCPTrie, ptr %49, i32 0, i32 0
  %51 = load ptr, ptr %50, align 8, !tbaa !41
  %52 = load i32, ptr %6, align 4, !tbaa !11
  %53 = load i32, ptr %7, align 4, !tbaa !11
  %54 = add nsw i32 %52, %53
  %55 = sext i32 %54 to i64
  %56 = getelementptr inbounds i16, ptr %51, i64 %55
  %57 = load i16, ptr %56, align 2, !tbaa !43
  %58 = zext i16 %57 to i32
  store i32 %58, ptr %8, align 4, !tbaa !11
  br label %96

59:                                               ; preds = %22
  %60 = load i32, ptr %6, align 4, !tbaa !11
  %61 = and i32 %60, 32767
  %62 = load i32, ptr %7, align 4, !tbaa !11
  %63 = and i32 %62, -8
  %64 = add nsw i32 %61, %63
  %65 = load i32, ptr %7, align 4, !tbaa !11
  %66 = ashr i32 %65, 3
  %67 = add nsw i32 %64, %66
  store i32 %67, ptr %6, align 4, !tbaa !11
  %68 = load i32, ptr %7, align 4, !tbaa !11
  %69 = and i32 %68, 7
  store i32 %69, ptr %7, align 4, !tbaa !11
  %70 = load ptr, ptr %3, align 8, !tbaa !38
  %71 = getelementptr inbounds nuw %struct.UCPTrie, ptr %70, i32 0, i32 0
  %72 = load ptr, ptr %71, align 8, !tbaa !41
  %73 = load i32, ptr %6, align 4, !tbaa !11
  %74 = add nsw i32 %73, 1
  store i32 %74, ptr %6, align 4, !tbaa !11
  %75 = sext i32 %73 to i64
  %76 = getelementptr inbounds i16, ptr %72, i64 %75
  %77 = load i16, ptr %76, align 2, !tbaa !43
  %78 = zext i16 %77 to i32
  %79 = load i32, ptr %7, align 4, !tbaa !11
  %80 = mul nsw i32 2, %79
  %81 = add nsw i32 2, %80
  %82 = shl i32 %78, %81
  %83 = and i32 %82, 196608
  store i32 %83, ptr %8, align 4, !tbaa !11
  %84 = load ptr, ptr %3, align 8, !tbaa !38
  %85 = getelementptr inbounds nuw %struct.UCPTrie, ptr %84, i32 0, i32 0
  %86 = load ptr, ptr %85, align 8, !tbaa !41
  %87 = load i32, ptr %6, align 4, !tbaa !11
  %88 = load i32, ptr %7, align 4, !tbaa !11
  %89 = add nsw i32 %87, %88
  %90 = sext i32 %89 to i64
  %91 = getelementptr inbounds i16, ptr %86, i64 %90
  %92 = load i16, ptr %91, align 2, !tbaa !43
  %93 = zext i16 %92 to i32
  %94 = load i32, ptr %8, align 4, !tbaa !11
  %95 = or i32 %94, %93
  store i32 %95, ptr %8, align 4, !tbaa !11
  br label %96

96:                                               ; preds = %59, %48
  %97 = load i32, ptr %8, align 4, !tbaa !11
  %98 = load i32, ptr %4, align 4, !tbaa !11
  %99 = and i32 %98, 15
  %100 = add nsw i32 %97, %99
  call void @llvm.lifetime.end.p0(i64 4, ptr %8) #9
  call void @llvm.lifetime.end.p0(i64 4, ptr %7) #9
  call void @llvm.lifetime.end.p0(i64 4, ptr %6) #9
  call void @llvm.lifetime.end.p0(i64 4, ptr %5) #9
  ret i32 %100
}

; Function Attrs: mustprogress uwtable
define i32 @ucptrie_internalU8PrevIndex_77(ptr noundef %0, i32 noundef %1, ptr noundef %2, ptr noundef %3) #0 {
  %5 = alloca ptr, align 8
  %6 = alloca i32, align 4
  %7 = alloca ptr, align 8
  %8 = alloca ptr, align 8
  %9 = alloca i32, align 4
  %10 = alloca i32, align 4
  %11 = alloca i32, align 4
  store ptr %0, ptr %5, align 8, !tbaa !38
  store i32 %1, ptr %6, align 4, !tbaa !11
  store ptr %2, ptr %7, align 8, !tbaa !45
  store ptr %3, ptr %8, align 8, !tbaa !45
  call void @llvm.lifetime.start.p0(i64 4, ptr %9) #9
  call void @llvm.lifetime.start.p0(i64 4, ptr %10) #9
  %12 = load ptr, ptr %8, align 8, !tbaa !45
  %13 = load ptr, ptr %7, align 8, !tbaa !45
  %14 = ptrtoint ptr %12 to i64
  %15 = ptrtoint ptr %13 to i64
  %16 = sub i64 %14, %15
  %17 = icmp sle i64 %16, 7
  br i1 %17, label %18, label %25

18:                                               ; preds = %4
  %19 = load ptr, ptr %8, align 8, !tbaa !45
  %20 = load ptr, ptr %7, align 8, !tbaa !45
  %21 = ptrtoint ptr %19 to i64
  %22 = ptrtoint ptr %20 to i64
  %23 = sub i64 %21, %22
  %24 = trunc i64 %23 to i32
  store i32 %24, ptr %10, align 4, !tbaa !11
  store i32 %24, ptr %9, align 4, !tbaa !11
  br label %28

25:                                               ; preds = %4
  store i32 7, ptr %10, align 4, !tbaa !11
  store i32 7, ptr %9, align 4, !tbaa !11
  %26 = load ptr, ptr %8, align 8, !tbaa !45
  %27 = getelementptr inbounds i8, ptr %26, i64 -7
  store ptr %27, ptr %7, align 8, !tbaa !45
  br label %28

28:                                               ; preds = %25, %18
  %29 = load ptr, ptr %7, align 8, !tbaa !45
  %30 = load i32, ptr %6, align 4, !tbaa !11
  %31 = call i32 @utf8_prevCharSafeBody_77(ptr noundef %29, i32 noundef 0, ptr noundef %9, i32 noundef %30, i8 noundef signext -1)
  store i32 %31, ptr %6, align 4, !tbaa !11
  %32 = load i32, ptr %10, align 4, !tbaa !11
  %33 = load i32, ptr %9, align 4, !tbaa !11
  %34 = sub nsw i32 %32, %33
  store i32 %34, ptr %9, align 4, !tbaa !11
  call void @llvm.lifetime.start.p0(i64 4, ptr %11) #9
  %35 = load i32, ptr %6, align 4, !tbaa !11
  %36 = icmp ule i32 %35, 65535
  br i1 %36, label %37, label %50

37:                                               ; preds = %28
  %38 = load ptr, ptr %5, align 8, !tbaa !38
  %39 = getelementptr inbounds nuw %struct.UCPTrie, ptr %38, i32 0, i32 0
  %40 = load ptr, ptr %39, align 8, !tbaa !41
  %41 = load i32, ptr %6, align 4, !tbaa !11
  %42 = ashr i32 %41, 6
  %43 = sext i32 %42 to i64
  %44 = getelementptr inbounds i16, ptr %40, i64 %43
  %45 = load i16, ptr %44, align 2, !tbaa !43
  %46 = zext i16 %45 to i32
  %47 = load i32, ptr %6, align 4, !tbaa !11
  %48 = and i32 %47, 63
  %49 = add nsw i32 %46, %48
  br label %77

50:                                               ; preds = %28
  %51 = load i32, ptr %6, align 4, !tbaa !11
  %52 = icmp ule i32 %51, 1114111
  br i1 %52, label %53, label %70

53:                                               ; preds = %50
  %54 = load i32, ptr %6, align 4, !tbaa !11
  %55 = load ptr, ptr %5, align 8, !tbaa !38
  %56 = getelementptr inbounds nuw %struct.UCPTrie, ptr %55, i32 0, i32 4
  %57 = load i32, ptr %56, align 8, !tbaa !34
  %58 = icmp sge i32 %54, %57
  br i1 %58, label %59, label %64

59:                                               ; preds = %53
  %60 = load ptr, ptr %5, align 8, !tbaa !38
  %61 = getelementptr inbounds nuw %struct.UCPTrie, ptr %60, i32 0, i32 3
  %62 = load i32, ptr %61, align 4, !tbaa !28
  %63 = sub nsw i32 %62, 2
  br label %68

64:                                               ; preds = %53
  %65 = load ptr, ptr %5, align 8, !tbaa !38
  %66 = load i32, ptr %6, align 4, !tbaa !11
  %67 = call i32 @ucptrie_internalSmallIndex_77(ptr noundef %65, i32 noundef %66)
  br label %68

68:                                               ; preds = %64, %59
  %69 = phi i32 [ %63, %59 ], [ %67, %64 ]
  br label %75

70:                                               ; preds = %50
  %71 = load ptr, ptr %5, align 8, !tbaa !38
  %72 = getelementptr inbounds nuw %struct.UCPTrie, ptr %71, i32 0, i32 3
  %73 = load i32, ptr %72, align 4, !tbaa !28
  %74 = sub nsw i32 %73, 1
  br label %75

75:                                               ; preds = %70, %68
  %76 = phi i32 [ %69, %68 ], [ %74, %70 ]
  br label %77

77:                                               ; preds = %75, %37
  %78 = phi i32 [ %49, %37 ], [ %76, %75 ]
  store i32 %78, ptr %11, align 4, !tbaa !11
  %79 = load i32, ptr %11, align 4, !tbaa !11
  %80 = shl i32 %79, 3
  %81 = load i32, ptr %9, align 4, !tbaa !11
  %82 = or i32 %80, %81
  call void @llvm.lifetime.end.p0(i64 4, ptr %11) #9
  call void @llvm.lifetime.end.p0(i64 4, ptr %10) #9
  call void @llvm.lifetime.end.p0(i64 4, ptr %9) #9
  ret i32 %82
}