; Function Attrs: mustprogress uwtable
define i32 @ucptrie_internalU8PrevIndex_77(ptr noundef readonly captures(none) %0, i32 noundef %1, ptr noundef %2, ptr noundef %3) local_unnamed_addr #0 {
  %5 = alloca i32, align 4
  call void @llvm.lifetime.start.p0(i64 4, ptr nonnull %5) #10
  %6 = ptrtoint ptr %3 to i64
  %7 = ptrtoint ptr %2 to i64
  %8 = sub i64 %6, %7
  %9 = icmp slt i64 %8, 8
  %10 = trunc i64 %8 to i32
  %11 = getelementptr inbounds i8, ptr %3, i64 -7
  %.sink = select i1 %9, i32 %10, i32 7
  %.019 = select i1 %9, ptr %2, ptr %11
  store i32 %.sink, ptr %5, align 4, !tbaa !23
  %12 = call i32 @utf8_prevCharSafeBody_77(ptr noundef %.019, i32 noundef 0, ptr noundef nonnull %5, i32 noundef %1, i8 noundef signext -1)
  %13 = load i32, ptr %5, align 4, !tbaa !23
  %14 = icmp ult i32 %12, 65536
  br i1 %14, label %15, label %24

15:                                               ; preds = %4
  %16 = load ptr, ptr %0, align 8, !tbaa !17
  %17 = lshr i32 %12, 6
  %18 = zext nneg i32 %17 to i64
  %19 = getelementptr inbounds nuw i16, ptr %16, i64 %18
  %20 = load i16, ptr %19, align 2, !tbaa !22
  %21 = zext i16 %20 to i32
  %22 = and i32 %12, 63
  %23 = add nuw nsw i32 %22, %21
  br label %87

24:                                               ; preds = %4
  %25 = icmp ult i32 %12, 1114112
  br i1 %25, label %26, label %83

26:                                               ; preds = %24
  %27 = getelementptr inbounds nuw i8, ptr %0, i64 24
  %28 = load i32, ptr %27, align 8, !tbaa !27
  %.not = icmp slt i32 %12, %28
  br i1 %.not, label %33, label %29

29:                                               ; preds = %26
  %30 = getelementptr inbounds nuw i8, ptr %0, i64 20
  %31 = load i32, ptr %30, align 4, !tbaa !28
  %32 = add nsw i32 %31, -2
  br label %87

33:                                               ; preds = %26
  %34 = lshr i32 %12, 14
  %35 = getelementptr inbounds nuw i8, ptr %0, i64 30
  %36 = load i8, ptr %35, align 2, !tbaa !25
  %37 = icmp eq i8 %36, 0
  %.025.v.i = select i1 %37, i32 1020, i32 64
  %.025.i = add nuw nsw i32 %.025.v.i, %34
  %38 = load ptr, ptr %0, align 8, !tbaa !17
  %39 = zext nneg i32 %.025.i to i64
  %40 = getelementptr inbounds nuw i16, ptr %38, i64 %39
  %41 = load i16, ptr %40, align 2, !tbaa !22
  %42 = zext i16 %41 to i32
  %43 = lshr i32 %12, 9
  %44 = and i32 %43, 31
  %45 = add nuw nsw i32 %44, %42
  %46 = zext nneg i32 %45 to i64
  %47 = getelementptr inbounds nuw i16, ptr %38, i64 %46
  %48 = load i16, ptr %47, align 2, !tbaa !22
  %49 = zext i16 %48 to i32
  %50 = lshr i32 %12, 4
  %51 = and i32 %50, 31
  %52 = icmp sgt i16 %48, -1
  br i1 %52, label %53, label %59

53:                                               ; preds = %33
  %54 = add nuw nsw i32 %51, %49
  %55 = zext nneg i32 %54 to i64
  %56 = getelementptr inbounds nuw i16, ptr %38, i64 %55
  %57 = load i16, ptr %56, align 2, !tbaa !22
  %58 = zext i16 %57 to i32
  br label %ucptrie_internalSmallIndex_77.exit

59:                                               ; preds = %33
  %60 = and i32 %49, 32767
  %61 = and i32 %50, 24
  %62 = lshr i32 %51, 3
  %63 = or disjoint i32 %62, %61
  %64 = add nuw nsw i32 %60, %63
  %65 = and i32 %50, 7
  %66 = zext nneg i32 %64 to i64
  %67 = getelementptr inbounds nuw i16, ptr %38, i64 %66
  %68 = load i16, ptr %67, align 2, !tbaa !22
  %69 = zext i16 %68 to i32
  %70 = shl nuw nsw i32 %65, 1
  %71 = add nuw nsw i32 %70, 2
  %72 = shl nuw i32 %69, %71
  %73 = and i32 %72, 196608
  %74 = add nuw nsw i32 %65, 1
  %75 = add nuw nsw i32 %74, %64
  %76 = zext nneg i32 %75 to i64
  %77 = getelementptr inbounds nuw i16, ptr %38, i64 %76
  %78 = load i16, ptr %77, align 2, !tbaa !22
  %79 = zext i16 %78 to i32
  %80 = or disjoint i32 %73, %79
  br label %ucptrie_internalSmallIndex_77.exit

ucptrie_internalSmallIndex_77.exit:               ; preds = %53, %59
  %.0.i = phi i32 [ %58, %53 ], [ %80, %59 ]
  %81 = and i32 %12, 15
  %82 = add nuw nsw i32 %.0.i, %81
  br label %87

83:                                               ; preds = %24
  %84 = getelementptr inbounds nuw i8, ptr %0, i64 20
  %85 = load i32, ptr %84, align 4, !tbaa !28
  %86 = add nsw i32 %85, -1
  br label %87

87:                                               ; preds = %83, %ucptrie_internalSmallIndex_77.exit, %29, %15
  %88 = phi i32 [ %23, %15 ], [ %86, %83 ], [ %32, %29 ], [ %82, %ucptrie_internalSmallIndex_77.exit ]
  %89 = sub nsw i32 %.sink, %13
  %90 = shl i32 %88, 3
  %91 = or i32 %90, %89
  call void @llvm.lifetime.end.p0(i64 4, ptr nonnull %5) #10
  ret i32 %91
}